target datalayout = "e-m:e-p270:32:32-p271:32:32-p272:64:64-i64:64-i128:128-f80:128-n8:16:32:64-S128"
target triple = "x86_64-pc-linux-gnu"

%class.BitInput = type { i32, i32, i8, ptr }

; Function Attrs: mustprogress nounwind uwtable
define linkonce_odr void @_ZN8BitInput7addbitsEj(ptr noundef nonnull align 8 dereferenceable(24) %0, i32 noundef %1) #1 comdat align 2 {
  %3 = alloca ptr, align 8
  %4 = alloca i32, align 4
  store ptr %0, ptr %3, align 8
  store i32 %1, ptr %4, align 4
  %5 = load ptr, ptr %3, align 8
  %6 = getelementptr inbounds %class.BitInput, ptr %5, i32 0, i32 1
  %7 = load i32, ptr %6, align 4
  %8 = load i32, ptr %4, align 4
  %9 = add i32 %8, %7
  store i32 %9, ptr %4, align 4
  %10 = load i32, ptr %4, align 4
  %11 = lshr i32 %10, 3
  %12 = getelementptr inbounds %class.BitInput, ptr %5, i32 0, i32 0
  %13 = load i32, ptr %12, align 8
  %14 = add i32 %13, %11
  store i32 %14, ptr %12, align 8
  %15 = load i32, ptr %4, align 4
  %16 = and i32 %15, 7
  %17 = getelementptr inbounds %class.BitInput, ptr %5, i32 0, i32 1
  store i32 %16, ptr %17, align 4
  ret void
}

; Function Attrs: mustprogress uwtable
define noundef i32 @_ZN6Unpack14ReadFilterDataER8BitInput(ptr noundef nonnull align 8 dereferenceable(59688) %0, ptr noundef nonnull align 8 dereferenceable(24) %1) #0 align 2 {
  %3 = alloca ptr, align 8
  %4 = alloca ptr, align 8
  %5 = alloca i32, align 4
  %6 = alloca i32, align 4
  %7 = alloca i32, align 4
  store ptr %0, ptr %3, align 8
  store ptr %1, ptr %4, align 8
  %8 = load ptr, ptr %4, align 8
  %9 = call noundef i32 @_ZN8BitInput8fgetbitsEv(ptr noundef nonnull align 8 dereferenceable(24) %8)
  %10 = lshr i32 %9, 14
  %11 = add i32 %10, 1
  store i32 %11, ptr %5, align 4
  %12 = load ptr, ptr %4, align 8
  call void @_ZN8BitInput7addbitsEj(ptr noundef nonnull align 8 dereferenceable(24) %12, i32 noundef 2)
  store i32 0, ptr %6, align 4
  store i32 0, ptr %7, align 4
  br label %13

13:                                               ; preds = %27, %2
  %14 = load i32, ptr %7, align 4
  %15 = load i32, ptr %5, align 4
  %16 = icmp ult i32 %14, %15
  br i1 %16, label %17, label %30

17:                                               ; preds = %13
  %18 = load ptr, ptr %4, align 8
  %19 = call noundef i32 @_ZN8BitInput8fgetbitsEv(ptr noundef nonnull align 8 dereferenceable(24) %18)
  %20 = lshr i32 %19, 8
  %21 = load i32, ptr %7, align 4
  %22 = mul i32 %21, 8
  %23 = shl i32 %20, %22
  %24 = load i32, ptr %6, align 4
  %25 = add i32 %24, %23
  store i32 %25, ptr %6, align 4
  %26 = load ptr, ptr %4, align 8
  call void @_ZN8BitInput7addbitsEj(ptr noundef nonnull align 8 dereferenceable(24) %26, i32 noundef 8)
  br label %27

27:                                               ; preds = %17
  %28 = load i32, ptr %7, align 4
  %29 = add i32 %28, 1
  store i32 %29, ptr %7, align 4
  br label %13, !llvm.loop !106

30:                                               ; preds = %13
  %31 = load i32, ptr %6, align 4
  ret i32 %31
}