; Function Attrs: mustprogress uwtable
define noundef i32 @_ZN6Unpack14ReadFilterDataER8BitInput(ptr nocapture noundef nonnull readnone align 8 dereferenceable(59688) %0, ptr noundef nonnull align 8 dereferenceable(24) %1) local_unnamed_addr #0 align 2 {
  %3 = tail call noundef i32 @_ZN8BitInput8fgetbitsEv(ptr noundef nonnull align 8 dereferenceable(24) %1)
  %4 = lshr i32 %3, 14
  %5 = getelementptr inbounds i8, ptr %1, i64 4
  %6 = load i32, ptr %5, align 4
  %7 = add i32 %6, 2
  %8 = lshr i32 %7, 3
  %9 = load i32, ptr %1, align 8
  %10 = add i32 %8, %9
  store i32 %10, ptr %1, align 8
  %11 = and i32 %7, 7
  store i32 %11, ptr %5, align 4
  br label %12

12:                                               ; preds = %2, %12
  %.011 = phi i32 [ 0, %2 ], [ %24, %12 ]
  %.0910 = phi i32 [ 0, %2 ], [ %17, %12 ]
  %13 = tail call noundef i32 @_ZN8BitInput8fgetbitsEv(ptr noundef nonnull align 8 dereferenceable(24) %1)
  %14 = lshr i32 %13, 8
  %15 = shl nuw nsw i32 %.011, 3
  %16 = shl i32 %14, %15
  %17 = add i32 %16, %.0910
  %18 = load i32, ptr %5, align 4
  %19 = add i32 %18, 8
  %20 = lshr i32 %19, 3
  %21 = load i32, ptr %1, align 8
  %22 = add i32 %20, %21
  store i32 %22, ptr %1, align 8
  %23 = and i32 %18, 7
  store i32 %23, ptr %5, align 4
  %24 = add nuw nsw i32 %.011, 1
  %exitcond.not = icmp eq i32 %.011, %4
  br i1 %exitcond.not, label %25, label %12, !llvm.loop !108

25:                                               ; preds = %12
  ret i32 %17
}